; Function Attrs: nounwind uwtable
define range(i32 0, 2) i32 @ossl_quic_wire_encode_frame_reset_stream(ptr noundef %0, ptr noundef readonly captures(none) %1) local_unnamed_addr #2 {
  %3 = tail call i32 @WPACKET_quic_write_vlint(ptr noundef %0, i64 noundef 4) #12
  %.not = icmp eq i32 %3, 0
  br i1 %.not, label %15, label %4

4:                                                ; preds = %2
  %5 = load i64, ptr %1, align 8, !tbaa !22
  %6 = tail call i32 @WPACKET_quic_write_vlint(ptr noundef %0, i64 noundef %5) #12
  %.not7 = icmp eq i32 %6, 0
  br i1 %.not7, label %15, label %7

7:                                                ; preds = %4
  %8 = getelementptr inbounds nuw i8, ptr %1, i64 8
  %9 = load i64, ptr %8, align 8, !tbaa !24
  %10 = tail call i32 @WPACKET_quic_write_vlint(ptr noundef %0, i64 noundef %9) #12
  %.not8 = icmp eq i32 %10, 0
  br i1 %.not8, label %15, label %11

11:                                               ; preds = %7
  %12 = getelementptr inbounds nuw i8, ptr %1, i64 16
  %13 = load i64, ptr %12, align 8, !tbaa !25
  %14 = tail call i32 @WPACKET_quic_write_vlint(ptr noundef %0, i64 noundef %13) #12
  %.not9 = icmp ne i32 %14, 0
  %spec.select = zext i1 %.not9 to i32
  br label %15

15:                                               ; preds = %11, %2, %4, %7
  %.0 = phi i32 [ 0, %7 ], [ 0, %4 ], [ 0, %2 ], [ %spec.select, %11 ]
  ret i32 %.0
}